target datalayout = "e-m:e-p270:32:32-p271:32:32-p272:64:64-i64:64-i128:128-f80:128-n8:16:32:64-S128"
target triple = "x86_64-pc-linux-gnu"

; Function Attrs: nounwind uwtable
define internal void @compute_histogram16(ptr noundef %0, i64 noundef %1, i32 noundef %2, i32 noundef %3, ptr noundef %4, i64 noundef %5) #1 {
  %7 = alloca ptr, align 8
  %8 = alloca i64, align 8
  %9 = alloca i32, align 4
  %10 = alloca i32, align 4
  %11 = alloca ptr, align 8
  %12 = alloca i64, align 8
  %13 = alloca ptr, align 8
  %14 = alloca i32, align 4
  %15 = alloca i32, align 4
  %16 = alloca i32, align 4
  %17 = alloca i32, align 4
  %18 = alloca i32, align 4
  store ptr %0, ptr %7, align 8, !tbaa !51
  store i64 %1, ptr %8, align 8, !tbaa !90
  store i32 %2, ptr %9, align 4, !tbaa !28
  store i32 %3, ptr %10, align 4, !tbaa !28
  store ptr %4, ptr %11, align 8, !tbaa !52
  store i64 %5, ptr %12, align 8, !tbaa !90
  call void @llvm.lifetime.start.p0(i64 8, ptr %13) #8
  %19 = load ptr, ptr %7, align 8, !tbaa !51
  store ptr %19, ptr %13, align 8, !tbaa !96
  %20 = load ptr, ptr %11, align 8, !tbaa !52
  %21 = load i64, ptr %12, align 8, !tbaa !90
  %22 = mul i64 %21, 4
  call void @llvm.memset.p0.i64(ptr align 4 %20, i8 0, i64 %22, i1 false)
  call void @llvm.lifetime.start.p0(i64 4, ptr %14) #8
  store i32 0, ptr %14, align 4, !tbaa !28
  br label %23

23:                                               ; preds = %53, %6
  %24 = load i32, ptr %14, align 4, !tbaa !28
  %25 = load i32, ptr %10, align 4, !tbaa !28
  %26 = icmp slt i32 %24, %25
  br i1 %26, label %28, label %27

27:                                               ; preds = %23
  store i32 2, ptr %15, align 4
  call void @llvm.lifetime.end.p0(i64 4, ptr %14) #8
  br label %56

28:                                               ; preds = %23
  call void @llvm.lifetime.start.p0(i64 4, ptr %16) #8
  store i32 0, ptr %16, align 4, !tbaa !28
  br label %29

29:                                               ; preds = %45, %28
  %30 = load i32, ptr %16, align 4, !tbaa !28
  %31 = load i32, ptr %9, align 4, !tbaa !28
  %32 = icmp slt i32 %30, %31
  br i1 %32, label %34, label %33

33:                                               ; preds = %29
  store i32 5, ptr %15, align 4
  call void @llvm.lifetime.end.p0(i64 4, ptr %16) #8
  br label %48

34:                                               ; preds = %29
  %35 = load ptr, ptr %11, align 8, !tbaa !52
  %36 = load ptr, ptr %13, align 8, !tbaa !96
  %37 = load i32, ptr %16, align 4, !tbaa !28
  %38 = sext i32 %37 to i64
  %39 = getelementptr inbounds i16, ptr %36, i64 %38
  %40 = load i16, ptr %39, align 2, !tbaa !98
  %41 = zext i16 %40 to i64
  %42 = getelementptr inbounds nuw float, ptr %35, i64 %41
  %43 = load float, ptr %42, align 4, !tbaa !73
  %44 = fadd nsz float %43, 1.000000e+00
  store float %44, ptr %42, align 4, !tbaa !73
  br label %45

45:                                               ; preds = %34
  %46 = load i32, ptr %16, align 4, !tbaa !28
  %47 = add nsw i32 %46, 1
  store i32 %47, ptr %16, align 4, !tbaa !28
  br label %29, !llvm.loop !100

48:                                               ; preds = %33
  %49 = load i64, ptr %8, align 8, !tbaa !90
  %50 = sdiv i64 %49, 2
  %51 = load ptr, ptr %13, align 8, !tbaa !96
  %52 = getelementptr inbounds i16, ptr %51, i64 %50
  store ptr %52, ptr %13, align 8, !tbaa !96
  br label %53

53:                                               ; preds = %48
  %54 = load i32, ptr %14, align 4, !tbaa !28
  %55 = add nsw i32 %54, 1
  store i32 %55, ptr %14, align 4, !tbaa !28
  br label %23, !llvm.loop !101

56:                                               ; preds = %27
  call void @llvm.lifetime.start.p0(i64 4, ptr %17) #8
  store i32 0, ptr %17, align 4, !tbaa !28
  br label %57

57:                                               ; preds = %72, %56
  %58 = load i32, ptr %17, align 4, !tbaa !28
  %59 = sext i32 %58 to i64
  %60 = load i64, ptr %12, align 8, !tbaa !90
  %61 = icmp ult i64 %59, %60
  br i1 %61, label %63, label %62

62:                                               ; preds = %57
  store i32 8, ptr %15, align 4
  call void @llvm.lifetime.end.p0(i64 4, ptr %17) #8
  br label %75

63:                                               ; preds = %57
  %64 = load i64, ptr %12, align 8, !tbaa !90
  %65 = uitofp i64 %64 to float
  %66 = load ptr, ptr %11, align 8, !tbaa !52
  %67 = load i32, ptr %17, align 4, !tbaa !28
  %68 = sext i32 %67 to i64
  %69 = getelementptr inbounds float, ptr %66, i64 %68
  %70 = load float, ptr %69, align 4, !tbaa !73
  %71 = fdiv nsz float %70, %65
  store float %71, ptr %69, align 4, !tbaa !73
  br label %72

72:                                               ; preds = %63
  %73 = load i32, ptr %17, align 4, !tbaa !28
  %74 = add nsw i32 %73, 1
  store i32 %74, ptr %17, align 4, !tbaa !28
  br label %57, !llvm.loop !102

75:                                               ; preds = %62
  call void @llvm.lifetime.start.p0(i64 4, ptr %18) #8
  store i32 1, ptr %18, align 4, !tbaa !28
  br label %76

76:                                               ; preds = %95, %75
  %77 = load i32, ptr %18, align 4, !tbaa !28
  %78 = sext i32 %77 to i64
  %79 = load i64, ptr %12, align 8, !tbaa !90
  %80 = icmp ult i64 %78, %79
  br i1 %80, label %82, label %81

81:                                               ; preds = %76
  store i32 11, ptr %15, align 4
  call void @llvm.lifetime.end.p0(i64 4, ptr %18) #8
  br label %98

82:                                               ; preds = %76
  %83 = load ptr, ptr %11, align 8, !tbaa !52
  %84 = load i32, ptr %18, align 4, !tbaa !28
  %85 = sub nsw i32 %84, 1
  %86 = sext i32 %85 to i64
  %87 = getelementptr inbounds float, ptr %83, i64 %86
  %88 = load float, ptr %87, align 4, !tbaa !73
  %89 = load ptr, ptr %11, align 8, !tbaa !52
  %90 = load i32, ptr %18, align 4, !tbaa !28
  %91 = sext i32 %90 to i64
  %92 = getelementptr inbounds float, ptr %89, i64 %91
  %93 = load float, ptr %92, align 4, !tbaa !73
  %94 = fadd nsz float %93, %88
  store float %94, ptr %92, align 4, !tbaa !73
  br label %95

95:                                               ; preds = %82
  %96 = load i32, ptr %18, align 4, !tbaa !28
  %97 = add nsw i32 %96, 1
  store i32 %97, ptr %18, align 4, !tbaa !28
  br label %76, !llvm.loop !103

98:                                               ; preds = %81
  call void @llvm.lifetime.end.p0(i64 8, ptr %13) #8
  ret void
}