; Function Attrs: nofree norecurse nosync nounwind memory(argmem: readwrite) uwtable
define internal void @compute_histogram16(ptr noundef readonly captures(none) %0, i64 noundef %1, i32 noundef %2, i32 noundef %3, ptr noundef captures(none) %4, i64 noundef %5) #7 {
  %7 = shl i64 %5, 2
  tail call void @llvm.memset.p0.i64(ptr align 4 %4, i8 0, i64 %7, i1 false)
  %8 = icmp sgt i32 %3, 0
  br i1 %8, label %.preheader34.lr.ph, label %.preheader33

.preheader34.lr.ph:                               ; preds = %6
  %9 = icmp sgt i32 %2, 0
  %10 = sdiv i64 %1, 2
  br i1 %9, label %.preheader34.us.preheader, label %.preheader33

.preheader34.us.preheader:                        ; preds = %.preheader34.lr.ph
  %wide.trip.count = zext nneg i32 %2 to i64
  br label %.preheader34.us

.preheader34.us:                                  ; preds = %.preheader34.us.preheader, %._crit_edge.us
  %.02837.us = phi i32 [ %19, %._crit_edge.us ], [ 0, %.preheader34.us.preheader ]
  %.02936.us = phi ptr [ %18, %._crit_edge.us ], [ %0, %.preheader34.us.preheader ]
  br label %11

11:                                               ; preds = %.preheader34.us, %11
  %indvars.iv = phi i64 [ 0, %.preheader34.us ], [ %indvars.iv.next, %11 ]
  %12 = getelementptr inbounds nuw i16, ptr %.02936.us, i64 %indvars.iv
  %13 = load i16, ptr %12, align 2, !tbaa !88
  %14 = zext i16 %13 to i64
  %15 = getelementptr inbounds nuw float, ptr %4, i64 %14
  %16 = load float, ptr %15, align 4, !tbaa !64
  %17 = fadd nsz float %16, 1.000000e+00
  store float %17, ptr %15, align 4, !tbaa !64
  %indvars.iv.next = add nuw nsw i64 %indvars.iv, 1
  %exitcond.not = icmp eq i64 %indvars.iv.next, %wide.trip.count
  br i1 %exitcond.not, label %._crit_edge.us, label %11, !llvm.loop !90

._crit_edge.us:                                   ; preds = %11
  %18 = getelementptr inbounds i16, ptr %.02936.us, i64 %10
  %19 = add nuw nsw i32 %.02837.us, 1
  %exitcond43.not = icmp eq i32 %19, %3
  br i1 %exitcond43.not, label %.preheader33, label %.preheader34.us, !llvm.loop !91

.preheader33:                                     ; preds = %._crit_edge.us, %.preheader34.lr.ph, %6
  %.not = icmp eq i64 %5, 0
  br i1 %.not, label %._crit_edge, label %.lr.ph

.lr.ph:                                           ; preds = %.preheader33
  %20 = uitofp i64 %5 to float
  br label %21

.preheader:                                       ; preds = %21
  %.not52 = icmp eq i64 %5, 1
  br i1 %.not52, label %._crit_edge, label %.lr.ph40.preheader

.lr.ph40.preheader:                               ; preds = %.preheader
  %load_initial = load float, ptr %4, align 4
  br label %.lr.ph40

21:                                               ; preds = %.lr.ph, %21
  %indvars.iv44 = phi i64 [ 0, %.lr.ph ], [ %indvars.iv.next45, %21 ]
  %22 = getelementptr inbounds nuw float, ptr %4, i64 %indvars.iv44
  %23 = load float, ptr %22, align 4, !tbaa !64
  %24 = fdiv nsz float %23, %20
  store float %24, ptr %22, align 4, !tbaa !64
  %indvars.iv.next45 = add nuw nsw i64 %indvars.iv44, 1
  %exitcond47.not = icmp eq i64 %indvars.iv.next45, %5
  br i1 %exitcond47.not, label %.preheader, label %21, !llvm.loop !92

._crit_edge:                                      ; preds = %.lr.ph40, %.preheader33, %.preheader
  ret void

.lr.ph40:                                         ; preds = %.lr.ph40.preheader, %.lr.ph40
  %store_forwarded = phi float [ %load_initial, %.lr.ph40.preheader ], [ %27, %.lr.ph40 ]
  %indvars.iv48 = phi i64 [ 1, %.lr.ph40.preheader ], [ %indvars.iv.next49, %.lr.ph40 ]
  %25 = getelementptr float, ptr %4, i64 %indvars.iv48
  %26 = load float, ptr %25, align 4, !tbaa !64
  %27 = fadd nsz float %store_forwarded, %26
  store float %27, ptr %25, align 4, !tbaa !64
  %indvars.iv.next49 = add nuw nsw i64 %indvars.iv48, 1
  %exitcond51.not = icmp eq i64 %indvars.iv.next49, %5
  br i1 %exitcond51.not, label %._crit_edge, label %.lr.ph40, !llvm.loop !93
}